target datalayout = "e-m:e-p270:32:32-p271:32:32-p272:64:64-i64:64-i128:128-f80:128-n8:16:32:64-S128"
target triple = "x86_64-pc-linux-gnu"

%"class.std::__cxx11::basic_string" = type { %"struct.std::__cxx11::basic_string<char>::_Alloc_hider", i64, %union.anon }
%"struct.std::__cxx11::basic_string<char>::_Alloc_hider" = type { ptr }
%union.anon = type { i64, [8 x i8] }
%"struct.igl::tinyply::PlyProperty" = type { %"class.std::__cxx11::basic_string", i8, i8, i8, i64 }
%"struct.std::_Vector_base.12" = type { %"struct.std::_Vector_base<igl::tinyply::PlyElement, std::allocator<igl::tinyply::PlyElement>>::_Vector_impl" }
%"struct.std::_Vector_base<igl::tinyply::PlyElement, std::allocator<igl::tinyply::PlyElement>>::_Vector_impl" = type { %"struct.std::_Vector_base<igl::tinyply::PlyElement, std::allocator<igl::tinyply::PlyElement>>::_Vector_impl_data" }
%"struct.std::_Vector_base<igl::tinyply::PlyElement, std::allocator<igl::tinyply::PlyElement>>::_Vector_impl_data" = type { ptr, ptr, ptr }
%"struct.igl::tinyply::PlyFile::PlyFileImpl::PropertyLookup" = type { ptr, i8, i64, i64 }
%"struct.igl::tinyply::PlyFile::PlyFileImpl" = type { %"class.std::unordered_map", i8, i8, %"class.std::vector.11", %"class.std::vector.27", %"class.std::vector.27", [64 x i8] }
%"class.std::unordered_map" = type { %"class.std::_Hashtable" }
%"class.std::_Hashtable" = type { ptr, i64, %"struct.std::__detail::_Hash_node_base", i64, %"struct.std::__detail::_Prime_rehash_policy", ptr }
%"struct.std::__detail::_Hash_node_base" = type { ptr }
%"struct.std::__detail::_Prime_rehash_policy" = type { float, i64 }
%"class.std::vector.11" = type { %"struct.std::_Vector_base.12" }
%"class.std::vector.27" = type { %"struct.std::_Vector_base.28" }
%"struct.std::_Vector_base.28" = type { %"struct.std::_Vector_base<std::__cxx11::basic_string<char>, std::allocator<std::__cxx11::basic_string<char>>>::_Vector_impl" }
%"struct.std::_Vector_base<std::__cxx11::basic_string<char>, std::allocator<std::__cxx11::basic_string<char>>>::_Vector_impl" = type { %"struct.std::_Vector_base<std::__cxx11::basic_string<char>, std::allocator<std::__cxx11::basic_string<char>>>::_Vector_impl_data" }
%"struct.std::_Vector_base<std::__cxx11::basic_string<char>, std::allocator<std::__cxx11::basic_string<char>>>::_Vector_impl_data" = type { ptr, ptr, ptr }
%class.anon.89 = type { ptr }
%class.anon.91 = type { ptr, ptr, ptr, ptr }

; Function Attrs: mustprogress nounwind uwtable
define dso_local noundef i32 @_ZN3igl7tinyply11endian_swapIjjEET0_RKT_(ptr noundef nonnull align 4 dereferenceable(4) %0) #4 {
  %2 = alloca ptr, align 8
  store ptr %0, ptr %2, align 8, !tbaa !46
  %3 = load ptr, ptr %2, align 8, !tbaa !46
  %4 = load i32, ptr %3, align 4, !tbaa !22
  %5 = shl i32 %4, 24
  %6 = load ptr, ptr %2, align 8, !tbaa !46
  %7 = load i32, ptr %6, align 4, !tbaa !22
  %8 = shl i32 %7, 8
  %9 = and i32 %8, 16711680
  %10 = or i32 %5, %9
  %11 = load ptr, ptr %2, align 8, !tbaa !46
  %12 = load i32, ptr %11, align 4, !tbaa !22
  %13 = lshr i32 %12, 8
  %14 = and i32 %13, 65280
  %15 = or i32 %10, %14
  %16 = load ptr, ptr %2, align 8, !tbaa !46
  %17 = load i32, ptr %16, align 4, !tbaa !22
  %18 = lshr i32 %17, 24
  %19 = or i32 %15, %18
  ret i32 %19
}

; Function Attrs: mustprogress nounwind uwtable
define dso_local noundef i32 @_ZN3igl7tinyply11endian_swapIiiEET0_RKT_(ptr noundef nonnull align 4 dereferenceable(4) %0) #4 {
  %2 = alloca ptr, align 8
  %3 = alloca i32, align 4
  store ptr %0, ptr %2, align 8, !tbaa !46
  call void @llvm.lifetime.start.p0(i64 4, ptr %3) #6
  %4 = load ptr, ptr %2, align 8, !tbaa !46
  %5 = call noundef i32 @_ZN3igl7tinyply11endian_swapIjjEET0_RKT_(ptr noundef nonnull align 4 dereferenceable(4) %4) #6
  store i32 %5, ptr %3, align 4, !tbaa !22
  %6 = load i32, ptr %3, align 4, !tbaa !22
  call void @llvm.lifetime.end.p0(i64 4, ptr %3) #6
  ret i32 %6
}

; Function Attrs: mustprogress nounwind uwtable
define dso_local noundef zeroext i16 @_ZN3igl7tinyply11endian_swapIttEET0_RKT_(ptr noundef nonnull align 2 dereferenceable(2) %0) #4 {
  %2 = alloca ptr, align 8
  store ptr %0, ptr %2, align 8, !tbaa !42
  %3 = load ptr, ptr %2, align 8, !tbaa !42
  %4 = load i16, ptr %3, align 2, !tbaa !44
  %5 = zext i16 %4 to i32
  %6 = shl i32 %5, 8
  %7 = load ptr, ptr %2, align 8, !tbaa !42
  %8 = load i16, ptr %7, align 2, !tbaa !44
  %9 = zext i16 %8 to i32
  %10 = ashr i32 %9, 8
  %11 = or i32 %6, %10
  %12 = trunc i32 %11 to i16
  ret i16 %12
}

; Function Attrs: mustprogress nounwind uwtable
define dso_local noundef signext i16 @_ZN3igl7tinyply11endian_swapIssEET0_RKT_(ptr noundef nonnull align 2 dereferenceable(2) %0) #4 {
  %2 = alloca ptr, align 8
  %3 = alloca i16, align 2
  store ptr %0, ptr %2, align 8, !tbaa !42
  call void @llvm.lifetime.start.p0(i64 2, ptr %3) #6
  %4 = load ptr, ptr %2, align 8, !tbaa !42
  %5 = call noundef zeroext i16 @_ZN3igl7tinyply11endian_swapIttEET0_RKT_(ptr noundef nonnull align 2 dereferenceable(2) %4) #6
  store i16 %5, ptr %3, align 2, !tbaa !44
  %6 = load i16, ptr %3, align 2, !tbaa !44
  call void @llvm.lifetime.end.p0(i64 2, ptr %3) #6
  ret i16 %6
}

; Function Attrs: inlinehint mustprogress nounwind uwtable
define internal noundef i64 @"_ZZN3igl7tinyply7PlyFile11PlyFileImpl10parse_dataERSibENK3$_4clERKNS0_4TypeEPvRmRKmS3_"(ptr noundef nonnull align 8 dereferenceable(8) %0, ptr noundef nonnull align 1 dereferenceable(1) %1, ptr noundef %2, ptr noundef nonnull align 8 dereferenceable(8) %3, ptr noundef nonnull align 8 dereferenceable(8) %4, ptr noundef nonnull align 8 dereferenceable(16) %5) #5 align 2 personality ptr @__gxx_personality_v0 {
  %7 = alloca ptr, align 8
  %8 = alloca ptr, align 8
  %9 = alloca ptr, align 8
  %10 = alloca ptr, align 8
  %11 = alloca ptr, align 8
  %12 = alloca ptr, align 8
  store ptr %0, ptr %7, align 8, !tbaa !29
  store ptr %1, ptr %8, align 8, !tbaa !29
  store ptr %2, ptr %9, align 8, !tbaa !29
  store ptr %3, ptr %10, align 8, !tbaa !48
  store ptr %4, ptr %11, align 8, !tbaa !48
  store ptr %5, ptr %12, align 8, !tbaa !58
  %13 = load ptr, ptr %7, align 8
  %14 = getelementptr inbounds nuw %class.anon.89, ptr %13, i32 0, i32 0
  %15 = load ptr, ptr %14, align 8, !tbaa !207
  %16 = load ptr, ptr %11, align 8, !tbaa !48
  %17 = load i64, ptr %16, align 8, !tbaa !50
  %18 = load ptr, ptr %10, align 8, !tbaa !48
  %19 = load i64, ptr %18, align 8, !tbaa !50
  %20 = add i64 %19, %17
  store i64 %20, ptr %18, align 8, !tbaa !50
  %21 = load ptr, ptr %12, align 8, !tbaa !58
  %22 = load ptr, ptr %9, align 8, !tbaa !29
  %23 = load ptr, ptr %11, align 8, !tbaa !48
  %24 = load i64, ptr %23, align 8, !tbaa !50
  %25 = invoke noundef nonnull align 8 dereferenceable(16) ptr @_ZNSi4readEPcl(ptr noundef nonnull align 8 dereferenceable(16) %21, ptr noundef %22, i64 noundef %24)
          to label %26 unwind label %54

26:                                               ; preds = %6
  %27 = getelementptr inbounds nuw %"struct.igl::tinyply::PlyFile::PlyFileImpl", ptr %15, i32 0, i32 2
  %28 = load i8, ptr %27, align 1, !tbaa !159, !range !93, !noundef !94
  %29 = trunc i8 %28 to i1
  br i1 %29, label %30, label %51

30:                                               ; preds = %26
  %31 = load ptr, ptr %8, align 8, !tbaa !29
  %32 = load i8, ptr %31, align 1, !tbaa !4
  switch i8 %32, label %49 [
    i8 3, label %33
    i8 4, label %37
    i8 5, label %41
    i8 6, label %45
  ]

33:                                               ; preds = %30
  %34 = load ptr, ptr %9, align 8, !tbaa !29
  %35 = call noundef signext i16 @_ZN3igl7tinyply11endian_swapIssEET0_RKT_(ptr noundef nonnull align 2 dereferenceable(2) %34) #6
  %36 = load ptr, ptr %9, align 8, !tbaa !29
  store i16 %35, ptr %36, align 2, !tbaa !44
  br label %50

37:                                               ; preds = %30
  %38 = load ptr, ptr %9, align 8, !tbaa !29
  %39 = call noundef zeroext i16 @_ZN3igl7tinyply11endian_swapIttEET0_RKT_(ptr noundef nonnull align 2 dereferenceable(2) %38) #6
  %40 = load ptr, ptr %9, align 8, !tbaa !29
  store i16 %39, ptr %40, align 2, !tbaa !44
  br label %50

41:                                               ; preds = %30
  %42 = load ptr, ptr %9, align 8, !tbaa !29
  %43 = call noundef i32 @_ZN3igl7tinyply11endian_swapIiiEET0_RKT_(ptr noundef nonnull align 4 dereferenceable(4) %42) #6
  %44 = load ptr, ptr %9, align 8, !tbaa !29
  store i32 %43, ptr %44, align 4, !tbaa !22
  br label %50

45:                                               ; preds = %30
  %46 = load ptr, ptr %9, align 8, !tbaa !29
  %47 = call noundef i32 @_ZN3igl7tinyply11endian_swapIjjEET0_RKT_(ptr noundef nonnull align 4 dereferenceable(4) %46) #6
  %48 = load ptr, ptr %9, align 8, !tbaa !29
  store i32 %47, ptr %48, align 4, !tbaa !22
  br label %50

49:                                               ; preds = %30
  br label %50

50:                                               ; preds = %49, %45, %41, %37, %33
  br label %51

51:                                               ; preds = %50, %26
  %52 = load ptr, ptr %11, align 8, !tbaa !48
  %53 = load i64, ptr %52, align 8, !tbaa !50
  ret i64 %53

54:                                               ; preds = %6
  %55 = landingpad { ptr, i32 }
          catch ptr null
  %56 = extractvalue { ptr, i32 } %55, 0
  call void @__clang_call_terminate(ptr %56) #23
  unreachable
}

; Function Attrs: inlinehint mustprogress nounwind uwtable
define internal noundef i64 @"_ZZN3igl7tinyply7PlyFile11PlyFileImpl10parse_dataERSibENK3$_1clERNS2_14PropertyLookupERKNS0_11PlyPropertyES3_"(ptr noundef nonnull align 8 dereferenceable(32) %0, ptr noundef nonnull align 8 dereferenceable(32) %1, ptr noundef nonnull align 8 dereferenceable(48) %2, ptr noundef nonnull align 8 dereferenceable(16) %3) #5 align 2 personality ptr @__gxx_personality_v0 {
  %5 = alloca i64, align 8
  %6 = alloca ptr, align 8
  %7 = alloca ptr, align 8
  %8 = alloca ptr, align 8
  %9 = alloca ptr, align 8
  %10 = alloca i64, align 8
  store ptr %0, ptr %6, align 8, !tbaa !29
  store ptr %1, ptr %7, align 8, !tbaa !108
  store ptr %2, ptr %8, align 8, !tbaa !56
  store ptr %3, ptr %9, align 8, !tbaa !58
  %11 = load ptr, ptr %6, align 8
  %12 = getelementptr inbounds nuw %class.anon.91, ptr %11, i32 0, i32 0
  %13 = load ptr, ptr %12, align 8, !tbaa !211
  %14 = load ptr, ptr %8, align 8, !tbaa !56
  %15 = getelementptr inbounds nuw %"struct.igl::tinyply::PlyProperty", ptr %14, i32 0, i32 2
  %16 = load i8, ptr %15, align 1, !tbaa !63, !range !93, !noundef !94
  %17 = trunc i8 %16 to i1
  br i1 %17, label %30, label %18

18:                                               ; preds = %4
  %19 = load ptr, ptr %9, align 8, !tbaa !58
  %20 = getelementptr inbounds nuw %"struct.igl::tinyply::PlyFile::PlyFileImpl", ptr %13, i32 0, i32 6
  %21 = getelementptr inbounds [64 x i8], ptr %20, i64 0, i64 0
  %22 = load ptr, ptr %7, align 8, !tbaa !108
  %23 = getelementptr inbounds nuw %"struct.igl::tinyply::PlyFile::PlyFileImpl::PropertyLookup", ptr %22, i32 0, i32 2
  %24 = load i64, ptr %23, align 8, !tbaa !92
  %25 = invoke noundef nonnull align 8 dereferenceable(16) ptr @_ZNSi4readEPcl(ptr noundef nonnull align 8 dereferenceable(16) %19, ptr noundef %21, i64 noundef %24)
          to label %26 unwind label %58

26:                                               ; preds = %18
  %27 = load ptr, ptr %7, align 8, !tbaa !108
  %28 = getelementptr inbounds nuw %"struct.igl::tinyply::PlyFile::PlyFileImpl::PropertyLookup", ptr %27, i32 0, i32 2
  %29 = load i64, ptr %28, align 8, !tbaa !92
  store i64 %29, ptr %5, align 8
  br label %56

30:                                               ; preds = %4
  %31 = getelementptr inbounds nuw %class.anon.91, ptr %11, i32 0, i32 3
  %32 = load ptr, ptr %31, align 8, !tbaa !841
  %33 = load ptr, ptr %8, align 8, !tbaa !56
  %34 = getelementptr inbounds nuw %"struct.igl::tinyply::PlyProperty", ptr %33, i32 0, i32 3
  %35 = getelementptr inbounds nuw %class.anon.91, ptr %11, i32 0, i32 1
  %36 = load ptr, ptr %35, align 8, !tbaa !842
  %37 = getelementptr inbounds nuw %class.anon.91, ptr %11, i32 0, i32 2
  %38 = load ptr, ptr %37, align 8, !tbaa !843
  %39 = load ptr, ptr %7, align 8, !tbaa !108
  %40 = getelementptr inbounds nuw %"struct.igl::tinyply::PlyFile::PlyFileImpl::PropertyLookup", ptr %39, i32 0, i32 3
  %41 = load ptr, ptr %9, align 8, !tbaa !58
  %42 = call noundef i64 @"_ZZN3igl7tinyply7PlyFile11PlyFileImpl10parse_dataERSibENK3$_4clERKNS0_4TypeEPvRmRKmS3_"(ptr noundef nonnull align 8 dereferenceable(8) %32, ptr noundef nonnull align 1 dereferenceable(1) %34, ptr noundef %36, ptr noundef nonnull align 8 dereferenceable(8) %38, ptr noundef nonnull align 8 dereferenceable(8) %40, ptr noundef nonnull align 8 dereferenceable(16) %41) #6
  call void @llvm.lifetime.start.p0(i64 8, ptr %10) #6
  %43 = load ptr, ptr %7, align 8, !tbaa !108
  %44 = getelementptr inbounds nuw %"struct.igl::tinyply::PlyFile::PlyFileImpl::PropertyLookup", ptr %43, i32 0, i32 2
  %45 = load i64, ptr %44, align 8, !tbaa !92
  %46 = getelementptr inbounds nuw %class.anon.91, ptr %11, i32 0, i32 1
  %47 = load ptr, ptr %46, align 8, !tbaa !842
  %48 = load i32, ptr %47, align 4, !tbaa !22
  %49 = zext i32 %48 to i64
  %50 = mul i64 %45, %49
  store i64 %50, ptr %10, align 8, !tbaa !50
  %51 = load ptr, ptr %9, align 8, !tbaa !58
  %52 = load i64, ptr %10, align 8, !tbaa !50
  %53 = invoke noundef nonnull align 8 dereferenceable(16) ptr @_ZNSi6ignoreEl(ptr noundef nonnull align 8 dereferenceable(16) %51, i64 noundef %52)
          to label %54 unwind label %58

54:                                               ; preds = %30
  %55 = load i64, ptr %10, align 8, !tbaa !50
  store i64 %55, ptr %5, align 8
  call void @llvm.lifetime.end.p0(i64 8, ptr %10) #6
  br label %56

56:                                               ; preds = %54, %26
  %57 = load i64, ptr %5, align 8
  ret i64 %57

58:                                               ; preds = %30, %18
  %59 = landingpad { ptr, i32 }
          catch ptr null
  %60 = extractvalue { ptr, i32 } %59, 0
  call void @__clang_call_terminate(ptr %60) #23
  unreachable
}

; Function Attrs: mustprogress nounwind uwtable
define linkonce_odr dso_local noundef ptr @_ZNKSt9_Any_data9_M_accessEv(ptr noundef nonnull align 8 dereferenceable(16) %0) #4 comdat align 2 {
  %2 = alloca ptr, align 8
  store ptr %0, ptr %2, align 8, !tbaa !832
  %3 = load ptr, ptr %2, align 8
  %4 = getelementptr inbounds [16 x i8], ptr %3, i64 0, i64 0
  ret ptr %4
}

; Function Attrs: mustprogress nounwind uwtable
define internal noundef i64 @"_ZSt13__invoke_implImRZN3igl7tinyply7PlyFile11PlyFileImpl10parse_dataERSibE3$_1JRNS3_14PropertyLookupERKNS1_11PlyPropertyES4_EET_St14__invoke_otherOT0_DpOT1_"(ptr noundef nonnull align 8 dereferenceable(32) %0, ptr noundef nonnull align 8 dereferenceable(32) %1, ptr noundef nonnull align 8 dereferenceable(48) %2, ptr noundef nonnull align 8 dereferenceable(16) %3) #4 {
  %5 = alloca ptr, align 8
  %6 = alloca ptr, align 8
  %7 = alloca ptr, align 8
  %8 = alloca ptr, align 8
  store ptr %0, ptr %5, align 8, !tbaa !29
  store ptr %1, ptr %6, align 8, !tbaa !108
  store ptr %2, ptr %7, align 8, !tbaa !56
  store ptr %3, ptr %8, align 8, !tbaa !58
  %9 = load ptr, ptr %5, align 8, !tbaa !29
  %10 = load ptr, ptr %6, align 8, !tbaa !108
  %11 = load ptr, ptr %7, align 8, !tbaa !56
  %12 = load ptr, ptr %8, align 8, !tbaa !58
  %13 = call noundef i64 @"_ZZN3igl7tinyply7PlyFile11PlyFileImpl10parse_dataERSibENK3$_1clERNS2_14PropertyLookupERKNS0_11PlyPropertyES3_"(ptr noundef nonnull align 8 dereferenceable(32) %9, ptr noundef nonnull align 8 dereferenceable(32) %10, ptr noundef nonnull align 8 dereferenceable(48) %11, ptr noundef nonnull align 8 dereferenceable(16) %12) #6
  ret i64 %13
}

; Function Attrs: mustprogress nounwind uwtable
define internal noundef nonnull align 8 dereferenceable(8) ptr @"_ZNKSt9_Any_data9_M_accessIPZN3igl7tinyply7PlyFile11PlyFileImpl10parse_dataERSibE3$_1EERKT_v"(ptr noundef nonnull align 8 dereferenceable(16) %0) #4 align 2 {
  %2 = alloca ptr, align 8
  store ptr %0, ptr %2, align 8, !tbaa !832
  %3 = load ptr, ptr %2, align 8
  %4 = call noundef ptr @_ZNKSt9_Any_data9_M_accessEv(ptr noundef nonnull align 8 dereferenceable(16) %3) #6
  ret ptr %4
}

; Function Attrs: mustprogress nounwind uwtable
define internal noundef i64 @"_ZSt10__invoke_rImRZN3igl7tinyply7PlyFile11PlyFileImpl10parse_dataERSibE3$_1JRNS3_14PropertyLookupERKNS1_11PlyPropertyES4_EENSt9enable_ifIX16is_invocable_r_vIT_T0_DpT1_EESD_E4typeEOSE_DpOSF_"(ptr noundef nonnull align 8 dereferenceable(32) %0, ptr noundef nonnull align 8 dereferenceable(32) %1, ptr noundef nonnull align 8 dereferenceable(48) %2, ptr noundef nonnull align 8 dereferenceable(16) %3) #4 personality ptr @__gxx_personality_v0 {
  %5 = alloca ptr, align 8
  %6 = alloca ptr, align 8
  %7 = alloca ptr, align 8
  %8 = alloca ptr, align 8
  store ptr %0, ptr %5, align 8, !tbaa !29
  store ptr %1, ptr %6, align 8, !tbaa !108
  store ptr %2, ptr %7, align 8, !tbaa !56
  store ptr %3, ptr %8, align 8, !tbaa !58
  %9 = load ptr, ptr %5, align 8, !tbaa !29
  %10 = load ptr, ptr %6, align 8, !tbaa !108
  %11 = load ptr, ptr %7, align 8, !tbaa !56
  %12 = load ptr, ptr %8, align 8, !tbaa !58
  %13 = invoke noundef i64 @"_ZSt13__invoke_implImRZN3igl7tinyply7PlyFile11PlyFileImpl10parse_dataERSibE3$_1JRNS3_14PropertyLookupERKNS1_11PlyPropertyES4_EET_St14__invoke_otherOT0_DpOT1_"(ptr noundef nonnull align 8 dereferenceable(32) %9, ptr noundef nonnull align 8 dereferenceable(32) %10, ptr noundef nonnull align 8 dereferenceable(48) %11, ptr noundef nonnull align 8 dereferenceable(16) %12)
          to label %14 unwind label %15

14:                                               ; preds = %4
  ret i64 %13

15:                                               ; preds = %4
  %16 = landingpad { ptr, i32 }
          catch ptr null
  %17 = extractvalue { ptr, i32 } %16, 0
  call void @__clang_call_terminate(ptr %17) #23
  unreachable
}

; Function Attrs: mustprogress nounwind uwtable
define internal noundef ptr @"_ZNSt14_Function_base13_Base_managerIZN3igl7tinyply7PlyFile11PlyFileImpl10parse_dataERSibE3$_1E14_M_get_pointerERKSt9_Any_data"(ptr noundef nonnull align 8 dereferenceable(16) %0) #4 align 2 {
  %2 = alloca ptr, align 8
  store ptr %0, ptr %2, align 8, !tbaa !832
  %3 = load ptr, ptr %2, align 8, !tbaa !832
  %4 = call noundef nonnull align 8 dereferenceable(8) ptr @"_ZNKSt9_Any_data9_M_accessIPZN3igl7tinyply7PlyFile11PlyFileImpl10parse_dataERSibE3$_1EERKT_v"(ptr noundef nonnull align 8 dereferenceable(16) %3) #6
  %5 = load ptr, ptr %4, align 8, !tbaa !29
  ret ptr %5
}

; Function Attrs: mustprogress nounwind uwtable
define internal noundef i64 @"_ZNSt17_Function_handlerIFmRN3igl7tinyply7PlyFile11PlyFileImpl14PropertyLookupERKNS1_11PlyPropertyERSiEZNS3_10parse_dataES9_bE3$_1E9_M_invokeERKSt9_Any_dataS5_S8_S9_"(ptr noundef nonnull align 8 dereferenceable(16) %0, ptr noundef nonnull align 8 dereferenceable(32) %1, ptr noundef nonnull align 8 dereferenceable(48) %2, ptr noundef nonnull align 8 dereferenceable(16) %3) #4 align 2 {
  %5 = alloca ptr, align 8
  %6 = alloca ptr, align 8
  %7 = alloca ptr, align 8
  %8 = alloca ptr, align 8
  store ptr %0, ptr %5, align 8, !tbaa !832
  store ptr %1, ptr %6, align 8, !tbaa !108
  store ptr %2, ptr %7, align 8, !tbaa !56
  store ptr %3, ptr %8, align 8, !tbaa !58
  %9 = load ptr, ptr %5, align 8, !tbaa !832
  %10 = call noundef ptr @"_ZNSt14_Function_base13_Base_managerIZN3igl7tinyply7PlyFile11PlyFileImpl10parse_dataERSibE3$_1E14_M_get_pointerERKSt9_Any_data"(ptr noundef nonnull align 8 dereferenceable(16) %9) #6
  %11 = load ptr, ptr %6, align 8, !tbaa !108
  %12 = load ptr, ptr %7, align 8, !tbaa !56
  %13 = load ptr, ptr %8, align 8, !tbaa !58
  %14 = call noundef i64 @"_ZSt10__invoke_rImRZN3igl7tinyply7PlyFile11PlyFileImpl10parse_dataERSibE3$_1JRNS3_14PropertyLookupERKNS1_11PlyPropertyES4_EENSt9enable_ifIX16is_invocable_r_vIT_T0_DpT1_EESD_E4typeEOSE_DpOSF_"(ptr noundef nonnull align 8 dereferenceable(32) %10, ptr noundef nonnull align 8 dereferenceable(32) %11, ptr noundef nonnull align 8 dereferenceable(48) %12, ptr noundef nonnull align 8 dereferenceable(16) %13) #6
  ret i64 %14
}