; Function Attrs: mustprogress nounwind uwtable
define internal noundef i64 @"_ZNSt17_Function_handlerIFmRN3igl7tinyply7PlyFile11PlyFileImpl14PropertyLookupERKNS1_11PlyPropertyERSiEZNS3_10parse_dataES9_bE3$_1E9_M_invokeERKSt9_Any_dataS5_S8_S9_"(ptr noundef nonnull readonly align 8 captures(none) dereferenceable(16) %0, ptr noundef nonnull readonly align 8 captures(none) dereferenceable(32) %1, ptr noundef nonnull readonly align 8 captures(none) dereferenceable(48) %2, ptr noundef nonnull align 8 dereferenceable(16) %3) #2 align 2 personality ptr @__gxx_personality_v0 {
  %.val = load ptr, ptr %0, align 8, !tbaa !155
  %5 = getelementptr inbounds nuw i8, ptr %2, i64 33
  %6 = load i8, ptr %5, align 1, !tbaa !38, !range !101, !noundef !102
  %7 = trunc nuw i8 %6 to i1
  br i1 %7, label %16, label %8

8:                                                ; preds = %4
  %9 = load ptr, ptr %.val, align 8, !tbaa !419
  %10 = getelementptr inbounds nuw i8, ptr %9, i64 136
  %11 = getelementptr inbounds nuw i8, ptr %1, i64 16
  %12 = load i64, ptr %11, align 8, !tbaa !244
  %13 = invoke noundef nonnull align 8 dereferenceable(16) ptr @_ZNSi4readEPcl(ptr noundef nonnull align 8 dereferenceable(16) %3, ptr noundef nonnull %10, i64 noundef %12)
          to label %14 unwind label %58

14:                                               ; preds = %8
  %15 = load i64, ptr %11, align 8, !tbaa !244
  br label %"_ZSt10__invoke_rImRZN3igl7tinyply7PlyFile11PlyFileImpl10parse_dataERSibE3$_1JRNS3_14PropertyLookupERKNS1_11PlyPropertyES4_EENSt9enable_ifIX16is_invocable_r_vIT_T0_DpT1_EESD_E4typeEOSE_DpOSF_.exit"

16:                                               ; preds = %4
  %17 = getelementptr inbounds nuw i8, ptr %.val, i64 24
  %18 = load ptr, ptr %17, align 8, !tbaa !421
  %19 = getelementptr inbounds nuw i8, ptr %2, i64 34
  %20 = getelementptr inbounds nuw i8, ptr %.val, i64 8
  %21 = load ptr, ptr %20, align 8, !tbaa !422
  %22 = getelementptr inbounds nuw i8, ptr %.val, i64 16
  %23 = load ptr, ptr %22, align 8, !tbaa !423
  %24 = getelementptr inbounds nuw i8, ptr %1, i64 24
  %.val.i.i.i = load ptr, ptr %18, align 8, !tbaa !218
  %25 = load i64, ptr %24, align 8, !tbaa !27
  %26 = load i64, ptr %23, align 8, !tbaa !27
  %27 = add i64 %26, %25
  store i64 %27, ptr %23, align 8, !tbaa !27
  %28 = load i64, ptr %24, align 8, !tbaa !27
  %29 = invoke noundef nonnull align 8 dereferenceable(16) ptr @_ZNSi4readEPcl(ptr noundef nonnull align 8 dereferenceable(16) %3, ptr noundef %21, i64 noundef %28)
          to label %30 unwind label %48

30:                                               ; preds = %16
  %31 = getelementptr inbounds nuw i8, ptr %.val.i.i.i, i64 57
  %32 = load i8, ptr %31, align 1, !tbaa !141, !range !101, !noundef !102
  %33 = trunc nuw i8 %32 to i1
  br i1 %33, label %34, label %"_ZZN3igl7tinyply7PlyFile11PlyFileImpl10parse_dataERSibENK3$_4clERKNS0_4TypeEPvRmRKmS3_.exit.i.i.i"

34:                                               ; preds = %30
  %35 = load i8, ptr %19, align 2, !tbaa !18
  switch i8 %35, label %"_ZZN3igl7tinyply7PlyFile11PlyFileImpl10parse_dataERSibENK3$_4clERKNS0_4TypeEPvRmRKmS3_.exit.i.i.i" [
    i8 3, label %36
    i8 4, label %39
    i8 5, label %42
    i8 6, label %45
  ]

36:                                               ; preds = %34
  %37 = load i16, ptr %21, align 2, !tbaa !23
  %38 = tail call noundef i16 @llvm.bswap.i16(i16 %37)
  store i16 %38, ptr %21, align 2, !tbaa !23
  br label %"_ZZN3igl7tinyply7PlyFile11PlyFileImpl10parse_dataERSibENK3$_4clERKNS0_4TypeEPvRmRKmS3_.exit.i.i.i"

39:                                               ; preds = %34
  %40 = load i16, ptr %21, align 2, !tbaa !23
  %41 = tail call noundef i16 @llvm.bswap.i16(i16 %40)
  store i16 %41, ptr %21, align 2, !tbaa !23
  br label %"_ZZN3igl7tinyply7PlyFile11PlyFileImpl10parse_dataERSibENK3$_4clERKNS0_4TypeEPvRmRKmS3_.exit.i.i.i"

42:                                               ; preds = %34
  %43 = load i32, ptr %21, align 4, !tbaa !25
  %44 = tail call noundef i32 @llvm.bswap.i32(i32 %43)
  store i32 %44, ptr %21, align 4, !tbaa !25
  br label %"_ZZN3igl7tinyply7PlyFile11PlyFileImpl10parse_dataERSibENK3$_4clERKNS0_4TypeEPvRmRKmS3_.exit.i.i.i"

45:                                               ; preds = %34
  %46 = load i32, ptr %21, align 4, !tbaa !25
  %47 = tail call noundef i32 @llvm.bswap.i32(i32 %46)
  store i32 %47, ptr %21, align 4, !tbaa !25
  br label %"_ZZN3igl7tinyply7PlyFile11PlyFileImpl10parse_dataERSibENK3$_4clERKNS0_4TypeEPvRmRKmS3_.exit.i.i.i"

48:                                               ; preds = %16
  %49 = landingpad { ptr, i32 }
          catch ptr null
  %50 = extractvalue { ptr, i32 } %49, 0
  tail call void @__clang_call_terminate(ptr %50) #31
  unreachable

"_ZZN3igl7tinyply7PlyFile11PlyFileImpl10parse_dataERSibENK3$_4clERKNS0_4TypeEPvRmRKmS3_.exit.i.i.i": ; preds = %45, %42, %39, %36, %34, %30
  %51 = getelementptr inbounds nuw i8, ptr %1, i64 16
  %52 = load i64, ptr %51, align 8, !tbaa !244
  %53 = load ptr, ptr %20, align 8, !tbaa !422
  %54 = load i32, ptr %53, align 4, !tbaa !25
  %55 = zext i32 %54 to i64
  %56 = mul i64 %52, %55
  %57 = invoke noundef nonnull align 8 dereferenceable(16) ptr @_ZNSi6ignoreEl(ptr noundef nonnull align 8 dereferenceable(16) %3, i64 noundef %56)
          to label %"_ZSt10__invoke_rImRZN3igl7tinyply7PlyFile11PlyFileImpl10parse_dataERSibE3$_1JRNS3_14PropertyLookupERKNS1_11PlyPropertyES4_EENSt9enable_ifIX16is_invocable_r_vIT_T0_DpT1_EESD_E4typeEOSE_DpOSF_.exit" unwind label %58

58:                                               ; preds = %"_ZZN3igl7tinyply7PlyFile11PlyFileImpl10parse_dataERSibENK3$_4clERKNS0_4TypeEPvRmRKmS3_.exit.i.i.i", %8
  %59 = landingpad { ptr, i32 }
          catch ptr null
  %60 = extractvalue { ptr, i32 } %59, 0
  tail call void @__clang_call_terminate(ptr %60) #31
  unreachable

"_ZSt10__invoke_rImRZN3igl7tinyply7PlyFile11PlyFileImpl10parse_dataERSibE3$_1JRNS3_14PropertyLookupERKNS1_11PlyPropertyES4_EENSt9enable_ifIX16is_invocable_r_vIT_T0_DpT1_EESD_E4typeEOSE_DpOSF_.exit": ; preds = %14, %"_ZZN3igl7tinyply7PlyFile11PlyFileImpl10parse_dataERSibENK3$_4clERKNS0_4TypeEPvRmRKmS3_.exit.i.i.i"
  %.0.i.i.i = phi i64 [ %15, %14 ], [ %56, %"_ZZN3igl7tinyply7PlyFile11PlyFileImpl10parse_dataERSibENK3$_4clERKNS0_4TypeEPvRmRKmS3_.exit.i.i.i" ]
  ret i64 %.0.i.i.i
}